target datalayout = "e-m:e-p270:32:32-p271:32:32-p272:64:64-i64:64-i128:128-f80:128-n8:16:32:64-S128"
target triple = "x86_64-unknown-linux-gnu"

%"class.std::__cxx11::basic_string" = type { %"struct.std::__cxx11::basic_string<char>::_Alloc_hider", i64, %union.anon }
%"struct.std::__cxx11::basic_string<char>::_Alloc_hider" = type { ptr }
%union.anon = type { i64, [8 x i8] }
%"class.testing::internal::MutexBase" = type { %union.pthread_mutex_t, i8, i64 }
%union.pthread_mutex_t = type { %struct.__pthread_mutex_s }
%struct.__pthread_mutex_s = type { i32, i32, i32, i32, i32, i16, i16, %struct.__pthread_internal_list }
%struct.__pthread_internal_list = type { ptr, ptr }
%"struct.std::_Rb_tree_header" = type { %"struct.std::_Rb_tree_node_base", i64 }
%"struct.std::_Rb_tree_node_base" = type { i32, ptr, ptr, ptr }
%"class.testing::Cardinality" = type { %"class.testing::internal::linked_ptr" }
%"class.testing::internal::linked_ptr" = type { ptr, %"class.testing::internal::linked_ptr_internal" }
%"class.testing::internal::linked_ptr_internal" = type { ptr }
%"class.testing::internal::ExpectationBase" = type { ptr, ptr, i32, %"class.std::__cxx11::basic_string", i8, %"class.testing::Cardinality", %"class.testing::ExpectationSet", i32, i8, %"class.std::vector.27", i8, i8, i8, i32, i8, %"class.testing::internal::Mutex" }
%"class.testing::ExpectationSet" = type { %"class.std::set" }
%"class.std::set" = type { %"class.std::_Rb_tree" }
%"class.std::_Rb_tree" = type { %"struct.std::_Rb_tree<testing::Expectation, testing::Expectation, std::_Identity<testing::Expectation>, testing::Expectation::Less>::_Rb_tree_impl" }
%"struct.std::_Rb_tree<testing::Expectation, testing::Expectation, std::_Identity<testing::Expectation>, testing::Expectation::Less>::_Rb_tree_impl" = type { %"struct.std::_Rb_tree_key_compare", %"struct.std::_Rb_tree_header" }
%"struct.std::_Rb_tree_key_compare" = type { %"class.testing::Expectation::Less" }
%"class.testing::Expectation::Less" = type { i8 }
%"class.std::vector.27" = type { %"struct.std::_Vector_base.28" }
%"struct.std::_Vector_base.28" = type { %"struct.std::_Vector_base<const void *, std::allocator<const void *>>::_Vector_impl" }
%"struct.std::_Vector_base<const void *, std::allocator<const void *>>::_Vector_impl" = type { %"struct.std::_Vector_base<const void *, std::allocator<const void *>>::_Vector_impl_data" }
%"struct.std::_Vector_base<const void *, std::allocator<const void *>>::_Vector_impl_data" = type { ptr, ptr, ptr }
%"class.testing::internal::Mutex" = type { %"class.testing::internal::MutexBase" }
%"struct.std::_Rb_tree_const_iterator" = type { ptr }
%"class.testing::Expectation" = type { %"class.testing::internal::linked_ptr.32" }
%"class.testing::internal::linked_ptr.32" = type { ptr, %"class.testing::internal::linked_ptr_internal" }
%"struct.std::pair.82" = type <{ %"struct.std::_Rb_tree_const_iterator", i8, [7 x i8] }>
%"class.testing::Sequence" = type { %"class.testing::internal::linked_ptr.75" }
%"class.testing::internal::linked_ptr.75" = type { ptr, %"class.testing::internal::linked_ptr_internal" }
%"struct.std::pair.85" = type <{ %"struct.std::_Rb_tree_iterator.87", i8, [7 x i8] }>
%"struct.std::_Rb_tree_iterator.87" = type { ptr }

; Function Attrs: mustprogress nounwind uwtable
define linkonce_odr void @_ZNSt23_Rb_tree_const_iteratorIN7testing11ExpectationEEC2ERKSt17_Rb_tree_iteratorIS1_E(ptr noundef nonnull align 8 dereferenceable(8) %this, ptr noundef nonnull align 8 dereferenceable(8) %__it) unnamed_addr #7 comdat align 2 {
entry:
  %this.addr = alloca ptr, align 8
  %__it.addr = alloca ptr, align 8
  store ptr %this, ptr %this.addr, align 8
  store ptr %__it, ptr %__it.addr, align 8
  %this1 = load ptr, ptr %this.addr, align 8
  %_M_node = getelementptr inbounds %"struct.std::_Rb_tree_const_iterator", ptr %this1, i32 0, i32 0
  %0 = load ptr, ptr %__it.addr, align 8
  %_M_node2 = getelementptr inbounds %"struct.std::_Rb_tree_iterator.87", ptr %0, i32 0, i32 0
  %1 = load ptr, ptr %_M_node2, align 8
  store ptr %1, ptr %_M_node, align 8
  ret void
}

; Function Attrs: mustprogress nounwind uwtable
define linkonce_odr hidden noundef ptr @_ZNK7testing8internal10linked_ptrINS0_15ExpectationBaseEE3getEv(ptr noundef nonnull align 8 dereferenceable(16) %this) #7 comdat align 2 {
entry:
  %this.addr = alloca ptr, align 8
  store ptr %this, ptr %this.addr, align 8
  %this1 = load ptr, ptr %this.addr, align 8
  %value_ = getelementptr inbounds %"class.testing::internal::linked_ptr.32", ptr %this1, i32 0, i32 0
  %0 = load ptr, ptr %value_, align 8
  ret ptr %0
}

; Function Attrs: mustprogress nounwind uwtable
define linkonce_odr void @_ZNSt4pairISt23_Rb_tree_const_iteratorIN7testing11ExpectationEEbEC2IRSt17_Rb_tree_iteratorIS2_ERbTnNSt9enable_ifIXaaclsr5_PCCPE22_MoveConstructiblePairIT_T0_EEclsr5_PCCPE30_ImplicitlyMoveConvertiblePairISB_SC_EEEbE4typeELb1EEEOSB_OSC_(ptr noundef nonnull align 8 dereferenceable(9) %this, ptr noundef nonnull align 8 dereferenceable(8) %__x, ptr noundef nonnull align 1 dereferenceable(1) %__y) unnamed_addr #7 comdat align 2 {
entry:
  %this.addr = alloca ptr, align 8
  %__x.addr = alloca ptr, align 8
  %__y.addr = alloca ptr, align 8
  store ptr %this, ptr %this.addr, align 8
  store ptr %__x, ptr %__x.addr, align 8
  store ptr %__y, ptr %__y.addr, align 8
  %this1 = load ptr, ptr %this.addr, align 8
  %first = getelementptr inbounds %"struct.std::pair.82", ptr %this1, i32 0, i32 0
  %0 = load ptr, ptr %__x.addr, align 8
  call void @_ZNSt23_Rb_tree_const_iteratorIN7testing11ExpectationEEC2ERKSt17_Rb_tree_iteratorIS1_E(ptr noundef nonnull align 8 dereferenceable(8) %first, ptr noundef nonnull align 8 dereferenceable(8) %0) #3
  %second = getelementptr inbounds %"struct.std::pair.82", ptr %this1, i32 0, i32 1
  %1 = load ptr, ptr %__y.addr, align 8
  %2 = load i8, ptr %1, align 1
  %tobool = trunc i8 %2 to i1
  %frombool = zext i1 %tobool to i8
  store i8 %frombool, ptr %second, align 8
  ret void
}

; Function Attrs: mustprogress uwtable
define linkonce_odr hidden noundef zeroext i1 @_ZNK7testing8internal10linked_ptrINS0_15ExpectationBaseEEeqIS2_EEbRKNS1_IT_EE(ptr noundef nonnull align 8 dereferenceable(16) %this, ptr noundef nonnull align 8 dereferenceable(16) %ptr) #4 comdat align 2 {
entry:
  %this.addr = alloca ptr, align 8
  %ptr.addr = alloca ptr, align 8
  store ptr %this, ptr %this.addr, align 8
  store ptr %ptr, ptr %ptr.addr, align 8
  %this1 = load ptr, ptr %this.addr, align 8
  %value_ = getelementptr inbounds %"class.testing::internal::linked_ptr.32", ptr %this1, i32 0, i32 0
  %0 = load ptr, ptr %value_, align 8
  %1 = load ptr, ptr %ptr.addr, align 8
  %call = call noundef ptr @_ZNK7testing8internal10linked_ptrINS0_15ExpectationBaseEE3getEv(ptr noundef nonnull align 8 dereferenceable(16) %1)
  %cmp = icmp eq ptr %0, %call
  ret i1 %cmp
}

; Function Attrs: mustprogress uwtable
define linkonce_odr { ptr, i8 } @_ZNSt3setIN7testing11ExpectationENS1_4LessESaIS1_EE6insertERKS1_(ptr noundef nonnull align 8 dereferenceable(48) %this, ptr noundef nonnull align 8 dereferenceable(16) %__x) #4 comdat align 2 {
entry:
  %retval = alloca %"struct.std::pair.82", align 8
  %this.addr = alloca ptr, align 8
  %__x.addr = alloca ptr, align 8
  %__p = alloca %"struct.std::pair.85", align 8
  store ptr %this, ptr %this.addr, align 8
  store ptr %__x, ptr %__x.addr, align 8
  %this1 = load ptr, ptr %this.addr, align 8
  %_M_t = getelementptr inbounds %"class.std::set", ptr %this1, i32 0, i32 0
  %0 = load ptr, ptr %__x.addr, align 8
  %call = call { ptr, i8 } @_ZNSt8_Rb_treeIN7testing11ExpectationES1_St9_IdentityIS1_ENS1_4LessESaIS1_EE16_M_insert_uniqueIRKS1_EESt4pairISt17_Rb_tree_iteratorIS1_EbEOT_(ptr noundef nonnull align 8 dereferenceable(48) %_M_t, ptr noundef nonnull align 8 dereferenceable(16) %0)
  %1 = getelementptr inbounds { ptr, i8 }, ptr %__p, i32 0, i32 0
  %2 = extractvalue { ptr, i8 } %call, 0
  store ptr %2, ptr %1, align 8
  %3 = getelementptr inbounds { ptr, i8 }, ptr %__p, i32 0, i32 1
  %4 = extractvalue { ptr, i8 } %call, 1
  store i8 %4, ptr %3, align 8
  %first = getelementptr inbounds %"struct.std::pair.85", ptr %__p, i32 0, i32 0
  %second = getelementptr inbounds %"struct.std::pair.85", ptr %__p, i32 0, i32 1
  call void @_ZNSt4pairISt23_Rb_tree_const_iteratorIN7testing11ExpectationEEbEC2IRSt17_Rb_tree_iteratorIS2_ERbTnNSt9enable_ifIXaaclsr5_PCCPE22_MoveConstructiblePairIT_T0_EEclsr5_PCCPE30_ImplicitlyMoveConvertiblePairISB_SC_EEEbE4typeELb1EEEOSB_OSC_(ptr noundef nonnull align 8 dereferenceable(9) %retval, ptr noundef nonnull align 8 dereferenceable(8) %first, ptr noundef nonnull align 1 dereferenceable(1) %second)
  %5 = load { ptr, i8 }, ptr %retval, align 8
  ret { ptr, i8 } %5
}

; Function Attrs: mustprogress uwtable
define linkonce_odr noundef zeroext i1 @_ZNK7testing11ExpectationeqERKS0_(ptr noundef nonnull align 8 dereferenceable(16) %this, ptr noundef nonnull align 8 dereferenceable(16) %rhs) #4 comdat align 2 {
entry:
  %this.addr = alloca ptr, align 8
  %rhs.addr = alloca ptr, align 8
  store ptr %this, ptr %this.addr, align 8
  store ptr %rhs, ptr %rhs.addr, align 8
  %this1 = load ptr, ptr %this.addr, align 8
  %expectation_base_ = getelementptr inbounds %"class.testing::Expectation", ptr %this1, i32 0, i32 0
  %0 = load ptr, ptr %rhs.addr, align 8
  %expectation_base_2 = getelementptr inbounds %"class.testing::Expectation", ptr %0, i32 0, i32 0
  %call = call noundef zeroext i1 @_ZNK7testing8internal10linked_ptrINS0_15ExpectationBaseEEeqIS2_EEbRKNS1_IT_EE(ptr noundef nonnull align 8 dereferenceable(16) %expectation_base_, ptr noundef nonnull align 8 dereferenceable(16) %expectation_base_2)
  ret i1 %call
}

; Function Attrs: mustprogress uwtable
define linkonce_odr noundef nonnull align 8 dereferenceable(16) ptr @_ZN7testing11ExpectationaSERKS0_(ptr noundef nonnull align 8 dereferenceable(16) %this, ptr noundef nonnull align 8 dereferenceable(16) %0) #4 comdat align 2 {
entry:
  %this.addr = alloca ptr, align 8
  %.addr = alloca ptr, align 8
  store ptr %this, ptr %this.addr, align 8
  store ptr %0, ptr %.addr, align 8
  %this1 = load ptr, ptr %this.addr, align 8
  %expectation_base_ = getelementptr inbounds %"class.testing::Expectation", ptr %this1, i32 0, i32 0
  %1 = load ptr, ptr %.addr, align 8
  %expectation_base_2 = getelementptr inbounds %"class.testing::Expectation", ptr %1, i32 0, i32 0
  %call = call noundef nonnull align 8 dereferenceable(16) ptr @_ZN7testing8internal10linked_ptrINS0_15ExpectationBaseEEaSERKS3_(ptr noundef nonnull align 8 dereferenceable(16) %expectation_base_, ptr noundef nonnull align 8 dereferenceable(16) %expectation_base_2)
  ret ptr %this1
}

; Function Attrs: mustprogress uwtable
define linkonce_odr hidden noundef nonnull align 8 dereferenceable(48) ptr @_ZN7testing14ExpectationSetpLERKNS_11ExpectationE(ptr noundef nonnull align 8 dereferenceable(48) %this, ptr noundef nonnull align 8 dereferenceable(16) %e) #4 comdat align 2 {
entry:
  %this.addr = alloca ptr, align 8
  %e.addr = alloca ptr, align 8
  %coerce = alloca %"struct.std::pair.82", align 8
  store ptr %this, ptr %this.addr, align 8
  store ptr %e, ptr %e.addr, align 8
  %this1 = load ptr, ptr %this.addr, align 8
  %expectations_ = getelementptr inbounds %"class.testing::ExpectationSet", ptr %this1, i32 0, i32 0
  %0 = load ptr, ptr %e.addr, align 8
  %call = call { ptr, i8 } @_ZNSt3setIN7testing11ExpectationENS1_4LessESaIS1_EE6insertERKS1_(ptr noundef nonnull align 8 dereferenceable(48) %expectations_, ptr noundef nonnull align 8 dereferenceable(16) %0)
  %1 = getelementptr inbounds { ptr, i8 }, ptr %coerce, i32 0, i32 0
  %2 = extractvalue { ptr, i8 } %call, 0
  store ptr %2, ptr %1, align 8
  %3 = getelementptr inbounds { ptr, i8 }, ptr %coerce, i32 0, i32 1
  %4 = extractvalue { ptr, i8 } %call, 1
  store i8 %4, ptr %3, align 8
  ret ptr %this1
}

; Function Attrs: mustprogress nounwind uwtable
define linkonce_odr hidden noundef ptr @_ZNK7testing8internal10linked_ptrINS0_15ExpectationBaseEEptEv(ptr noundef nonnull align 8 dereferenceable(16) %this) #7 comdat align 2 {
entry:
  %this.addr = alloca ptr, align 8
  store ptr %this, ptr %this.addr, align 8
  %this1 = load ptr, ptr %this.addr, align 8
  %value_ = getelementptr inbounds %"class.testing::internal::linked_ptr.32", ptr %this1, i32 0, i32 0
  %0 = load ptr, ptr %value_, align 8
  ret ptr %0
}

; Function Attrs: mustprogress nounwind uwtable
define linkonce_odr hidden noundef zeroext i1 @_ZNK7testing8internal10linked_ptrINS0_15ExpectationBaseEEneEPS2_(ptr noundef nonnull align 8 dereferenceable(16) %this, ptr noundef %p) #7 comdat align 2 {
entry:
  %this.addr = alloca ptr, align 8
  %p.addr = alloca ptr, align 8
  store ptr %this, ptr %this.addr, align 8
  store ptr %p, ptr %p.addr, align 8
  %this1 = load ptr, ptr %this.addr, align 8
  %value_ = getelementptr inbounds %"class.testing::internal::linked_ptr.32", ptr %this1, i32 0, i32 0
  %0 = load ptr, ptr %value_, align 8
  %1 = load ptr, ptr %p.addr, align 8
  %cmp = icmp ne ptr %0, %1
  ret i1 %cmp
}

; Function Attrs: mustprogress nounwind uwtable
define linkonce_odr noundef nonnull align 8 dereferenceable(16) ptr @_ZNK7testing11Expectation16expectation_baseEv(ptr noundef nonnull align 8 dereferenceable(16) %this) #7 comdat align 2 {
entry:
  %this.addr = alloca ptr, align 8
  store ptr %this, ptr %this.addr, align 8
  %this1 = load ptr, ptr %this.addr, align 8
  %expectation_base_ = getelementptr inbounds %"class.testing::Expectation", ptr %this1, i32 0, i32 0
  ret ptr %expectation_base_
}

; Function Attrs: mustprogress nounwind uwtable
define linkonce_odr hidden noundef ptr @_ZNK7testing8internal10linked_ptrINS_11ExpectationEEptEv(ptr noundef nonnull align 8 dereferenceable(16) %this) #7 comdat align 2 {
entry:
  %this.addr = alloca ptr, align 8
  store ptr %this, ptr %this.addr, align 8
  %this1 = load ptr, ptr %this.addr, align 8
  %value_ = getelementptr inbounds %"class.testing::internal::linked_ptr.75", ptr %this1, i32 0, i32 0
  %0 = load ptr, ptr %value_, align 8
  ret ptr %0
}

; Function Attrs: mustprogress uwtable
define linkonce_odr noundef zeroext i1 @_ZNK7testing11ExpectationneERKS0_(ptr noundef nonnull align 8 dereferenceable(16) %this, ptr noundef nonnull align 8 dereferenceable(16) %rhs) #4 comdat align 2 {
entry:
  %this.addr = alloca ptr, align 8
  %rhs.addr = alloca ptr, align 8
  store ptr %this, ptr %this.addr, align 8
  store ptr %rhs, ptr %rhs.addr, align 8
  %this1 = load ptr, ptr %this.addr, align 8
  %0 = load ptr, ptr %rhs.addr, align 8
  %call = call noundef zeroext i1 @_ZNK7testing11ExpectationeqERKS0_(ptr noundef nonnull align 8 dereferenceable(16) %this1, ptr noundef nonnull align 8 dereferenceable(16) %0)
  %lnot = xor i1 %call, true
  ret i1 %lnot
}

; Function Attrs: mustprogress nounwind uwtable
define linkonce_odr hidden noundef nonnull align 8 dereferenceable(16) ptr @_ZNK7testing8internal10linked_ptrINS_11ExpectationEEdeEv(ptr noundef nonnull align 8 dereferenceable(16) %this) #7 comdat align 2 {
entry:
  %this.addr = alloca ptr, align 8
  store ptr %this, ptr %this.addr, align 8
  %this1 = load ptr, ptr %this.addr, align 8
  %value_ = getelementptr inbounds %"class.testing::internal::linked_ptr.75", ptr %this1, i32 0, i32 0
  %0 = load ptr, ptr %value_, align 8
  ret ptr %0
}

; Function Attrs: mustprogress uwtable
define void @_ZNK7testing8Sequence14AddExpectationERKNS_11ExpectationE(ptr noundef nonnull align 8 dereferenceable(16) %this, ptr noundef nonnull align 8 dereferenceable(16) %expectation) #4 align 2 {
entry:
  %this.addr = alloca ptr, align 8
  %expectation.addr = alloca ptr, align 8
  store ptr %this, ptr %this.addr, align 8
  store ptr %expectation, ptr %expectation.addr, align 8
  %this1 = load ptr, ptr %this.addr, align 8
  %last_expectation_ = getelementptr inbounds %"class.testing::Sequence", ptr %this1, i32 0, i32 0
  %call = call noundef nonnull align 8 dereferenceable(16) ptr @_ZNK7testing8internal10linked_ptrINS_11ExpectationEEdeEv(ptr noundef nonnull align 8 dereferenceable(16) %last_expectation_)
  %0 = load ptr, ptr %expectation.addr, align 8
  %call2 = call noundef zeroext i1 @_ZNK7testing11ExpectationneERKS0_(ptr noundef nonnull align 8 dereferenceable(16) %call, ptr noundef nonnull align 8 dereferenceable(16) %0)
  br i1 %call2, label %if.then, label %if.end16

if.then:                                          ; preds = %entry
  %last_expectation_3 = getelementptr inbounds %"class.testing::Sequence", ptr %this1, i32 0, i32 0
  %call4 = call noundef ptr @_ZNK7testing8internal10linked_ptrINS_11ExpectationEEptEv(ptr noundef nonnull align 8 dereferenceable(16) %last_expectation_3)
  %call5 = call noundef nonnull align 8 dereferenceable(16) ptr @_ZNK7testing11Expectation16expectation_baseEv(ptr noundef nonnull align 8 dereferenceable(16) %call4)
  %call6 = call noundef zeroext i1 @_ZNK7testing8internal10linked_ptrINS0_15ExpectationBaseEEneEPS2_(ptr noundef nonnull align 8 dereferenceable(16) %call5, ptr noundef null)
  br i1 %call6, label %if.then7, label %if.end

if.then7:                                         ; preds = %if.then
  %last_expectation_8 = getelementptr inbounds %"class.testing::Sequence", ptr %this1, i32 0, i32 0
  %call9 = call noundef nonnull align 8 dereferenceable(16) ptr @_ZNK7testing8internal10linked_ptrINS_11ExpectationEEdeEv(ptr noundef nonnull align 8 dereferenceable(16) %last_expectation_8)
  %1 = load ptr, ptr %expectation.addr, align 8
  %call10 = call noundef nonnull align 8 dereferenceable(16) ptr @_ZNK7testing11Expectation16expectation_baseEv(ptr noundef nonnull align 8 dereferenceable(16) %1)
  %call11 = call noundef ptr @_ZNK7testing8internal10linked_ptrINS0_15ExpectationBaseEEptEv(ptr noundef nonnull align 8 dereferenceable(16) %call10)
  %immediate_prerequisites_ = getelementptr inbounds %"class.testing::internal::ExpectationBase", ptr %call11, i32 0, i32 6
  %call12 = call noundef nonnull align 8 dereferenceable(48) ptr @_ZN7testing14ExpectationSetpLERKNS_11ExpectationE(ptr noundef nonnull align 8 dereferenceable(48) %immediate_prerequisites_, ptr noundef nonnull align 8 dereferenceable(16) %call9)
  br label %if.end

if.end:                                           ; preds = %if.then7, %if.then
  %2 = load ptr, ptr %expectation.addr, align 8
  %last_expectation_13 = getelementptr inbounds %"class.testing::Sequence", ptr %this1, i32 0, i32 0
  %call14 = call noundef nonnull align 8 dereferenceable(16) ptr @_ZNK7testing8internal10linked_ptrINS_11ExpectationEEdeEv(ptr noundef nonnull align 8 dereferenceable(16) %last_expectation_13)
  %call15 = call noundef nonnull align 8 dereferenceable(16) ptr @_ZN7testing11ExpectationaSERKS0_(ptr noundef nonnull align 8 dereferenceable(16) %call14, ptr noundef nonnull align 8 dereferenceable(16) %2)
  br label %if.end16

if.end16:                                         ; preds = %if.end, %entry
  ret void
}