; Function Attrs: mustprogress uwtable
define void @_ZNK7testing8Sequence14AddExpectationERKNS_11ExpectationE(ptr nocapture noundef nonnull readonly align 8 dereferenceable(16) %this, ptr noundef nonnull align 8 dereferenceable(16) %expectation) local_unnamed_addr #3 align 2 {
entry:
  %0 = load ptr, ptr %this, align 8
  %1 = load ptr, ptr %0, align 8
  %2 = load ptr, ptr %expectation, align 8
  %cmp.i.i.i.not = icmp eq ptr %1, %2
  br i1 %cmp.i.i.i.not, label %if.end16, label %if.then

if.then:                                          ; preds = %entry
  %cmp.i.not = icmp eq ptr %1, null
  br i1 %cmp.i.not, label %if.end, label %if.then7

if.then7:                                         ; preds = %if.then
  %immediate_prerequisites_ = getelementptr inbounds i8, ptr %2, i64 80
  %call.i.i = tail call { ptr, i8 } @_ZNSt8_Rb_treeIN7testing11ExpectationES1_St9_IdentityIS1_ENS1_4LessESaIS1_EE16_M_insert_uniqueIRKS1_EESt4pairISt17_Rb_tree_iteratorIS1_EbEOT_(ptr noundef nonnull align 8 dereferenceable(48) %immediate_prerequisites_, ptr noundef nonnull align 8 dereferenceable(16) %0)
  %.pre = load ptr, ptr %this, align 8
  br label %if.end

if.end:                                           ; preds = %if.then7, %if.then
  %3 = phi ptr [ %.pre, %if.then7 ], [ %0, %if.then ]
  %call.i = tail call noundef nonnull align 8 dereferenceable(16) ptr @_ZN7testing8internal10linked_ptrINS0_15ExpectationBaseEEaSERKS3_(ptr noundef nonnull align 8 dereferenceable(16) %3, ptr noundef nonnull align 8 dereferenceable(16) %expectation)
  br label %if.end16

if.end16:                                         ; preds = %if.end, %entry
  ret void
}